; Function Attrs: mustprogress nofree norecurse nosync nounwind memory(readwrite, inaccessiblemem: none) uwtable
define noundef zeroext i1 @_ZN6plic_t12pending_readEmPj(ptr noundef nonnull readonly align 8 captures(none) dereferenceable(1204) %0, i64 noundef %1, ptr noundef writeonly captures(none) initializes((0, 4)) %2) local_unnamed_addr #9 align 2 {
  %4 = alloca %struct.plic_context_t, align 8
  %5 = lshr i64 %1, 2
  %6 = trunc i64 %5 to i32
  %7 = getelementptr inbounds nuw i8, ptr %0, i64 44
  %8 = load i32, ptr %7, align 4, !tbaa !18
  %9 = icmp ugt i32 %8, %6
  store i32 0, ptr %2, align 4, !tbaa !53
  br i1 %9, label %10, label %.loopexit

10:                                               ; preds = %3
  %11 = getelementptr inbounds nuw i8, ptr %0, i64 16
  %12 = load ptr, ptr %11, align 8, !tbaa !63
  %13 = getelementptr inbounds nuw i8, ptr %0, i64 24
  %14 = load ptr, ptr %13, align 8, !tbaa !63
  %15 = icmp eq ptr %12, %14
  br i1 %15, label %.loopexit, label %.lr.ph

.lr.ph:                                           ; preds = %10
  %16 = getelementptr inbounds nuw i8, ptr %4, i64 140
  %17 = and i64 %5, 4294967295
  %18 = getelementptr inbounds nuw [32 x i32], ptr %16, i64 0, i64 %17
  br label %19

19:                                               ; preds = %.lr.ph, %19
  %20 = phi i32 [ 0, %.lr.ph ], [ %22, %19 ]
  %.sroa.08.011 = phi ptr [ %12, %.lr.ph ], [ %23, %19 ]
  call void @llvm.lifetime.start.p0(i64 1424, ptr nonnull %4) #30
  call void @llvm.memcpy.p0.p0.i64(ptr noundef nonnull align 8 dereferenceable(1424) %4, ptr noundef nonnull align 8 dereferenceable(1424) %.sroa.08.011, i64 1424, i1 false), !tbaa.struct !35
  %21 = load i32, ptr %18, align 4, !tbaa !53
  %22 = or i32 %20, %21
  store i32 %22, ptr %2, align 4, !tbaa !53
  call void @llvm.lifetime.end.p0(i64 1424, ptr nonnull %4) #30
  %23 = getelementptr inbounds nuw i8, ptr %.sroa.08.011, i64 1424
  %24 = icmp eq ptr %23, %14
  br i1 %24, label %.loopexit, label %19

.loopexit:                                        ; preds = %19, %3, %10
  ret i1 true
}